; Function Attrs: mustprogress uwtable
define internal fastcc void @"_ZNSt14_Function_base13_Base_managerIZN4lean11instantiateERKNS1_5levelERKNS1_8list_refINS1_4nameEEERKNS5_IS2_EEE3$_0E15_M_init_functorIRKSD_EEvRSt9_Any_dataOT_"(ptr noundef nonnull writeonly align 8 captures(none) dereferenceable(16) %0, ptr noundef nonnull readonly align 8 captures(none) dereferenceable(16) %1) unnamed_addr #0 align 2 personality ptr @__gxx_personality_v0 {
  %3 = tail call noalias noundef nonnull dereferenceable(16) ptr @_Znwm(i64 noundef 16) #22
  %4 = load ptr, ptr %1, align 8, !tbaa !3
  store ptr %4, ptr %3, align 8, !tbaa !3
  %5 = ptrtoint ptr %4 to i64
  %6 = and i64 %5, 1
  %.not.i.i.i.i.i = icmp eq i64 %6, 0
  br i1 %.not.i.i.i.i.i, label %7, label %_ZN4lean8list_refINS_4nameEEC2ERKS2_.exit.i.i

7:                                                ; preds = %2
  %.val.i.i.i.i.i.i = load i32, ptr %4, align 4, !tbaa !8
  %8 = icmp sgt i32 %.val.i.i.i.i.i.i, 0
  br i1 %8, label %9, label %11, !prof !11

9:                                                ; preds = %7
  %10 = add nuw nsw i32 %.val.i.i.i.i.i.i, 1
  store i32 %10, ptr %4, align 4, !tbaa !8
  br label %_ZN4lean8list_refINS_4nameEEC2ERKS2_.exit.i.i

11:                                               ; preds = %7
  %.not.i.i.i.i.i.i = icmp eq i32 %.val.i.i.i.i.i.i, 0
  br i1 %.not.i.i.i.i.i.i, label %_ZN4lean8list_refINS_4nameEEC2ERKS2_.exit.i.i, label %12

12:                                               ; preds = %11
  invoke void @lean_inc_ref_cold(ptr noundef nonnull %4)
          to label %_ZN4lean8list_refINS_4nameEEC2ERKS2_.exit.i.i unwind label %26

_ZN4lean8list_refINS_4nameEEC2ERKS2_.exit.i.i:    ; preds = %12, %11, %9, %2
  %13 = getelementptr inbounds nuw i8, ptr %3, i64 8
  %14 = getelementptr inbounds nuw i8, ptr %1, i64 8
  %15 = load ptr, ptr %14, align 8, !tbaa !3
  store ptr %15, ptr %13, align 8, !tbaa !3
  %16 = ptrtoint ptr %15 to i64
  %17 = and i64 %16, 1
  %.not.i.i.i4.i.i = icmp eq i64 %17, 0
  br i1 %.not.i.i.i4.i.i, label %18, label %"_ZNSt14_Function_base13_Base_managerIZN4lean11instantiateERKNS1_5levelERKNS1_8list_refINS1_4nameEEERKNS5_IS2_EEE3$_0E9_M_createIRKSD_EEvRSt9_Any_dataOT_St17integral_constantIbLb0EE.exit"

18:                                               ; preds = %_ZN4lean8list_refINS_4nameEEC2ERKS2_.exit.i.i
  %.val.i.i.i.i5.i.i = load i32, ptr %15, align 4, !tbaa !8
  %19 = icmp sgt i32 %.val.i.i.i.i5.i.i, 0
  br i1 %19, label %20, label %22, !prof !11

20:                                               ; preds = %18
  %21 = add nuw nsw i32 %.val.i.i.i.i5.i.i, 1
  store i32 %21, ptr %15, align 4, !tbaa !8
  br label %"_ZNSt14_Function_base13_Base_managerIZN4lean11instantiateERKNS1_5levelERKNS1_8list_refINS1_4nameEEERKNS5_IS2_EEE3$_0E9_M_createIRKSD_EEvRSt9_Any_dataOT_St17integral_constantIbLb0EE.exit"

22:                                               ; preds = %18
  %.not.i.i.i.i6.i.i = icmp eq i32 %.val.i.i.i.i5.i.i, 0
  br i1 %.not.i.i.i.i6.i.i, label %"_ZNSt14_Function_base13_Base_managerIZN4lean11instantiateERKNS1_5levelERKNS1_8list_refINS1_4nameEEERKNS5_IS2_EEE3$_0E9_M_createIRKSD_EEvRSt9_Any_dataOT_St17integral_constantIbLb0EE.exit", label %23

23:                                               ; preds = %22
  invoke void @lean_inc_ref_cold(ptr noundef nonnull %15)
          to label %"_ZNSt14_Function_base13_Base_managerIZN4lean11instantiateERKNS1_5levelERKNS1_8list_refINS1_4nameEEERKNS5_IS2_EEE3$_0E9_M_createIRKSD_EEvRSt9_Any_dataOT_St17integral_constantIbLb0EE.exit" unwind label %24

24:                                               ; preds = %23
  %25 = landingpad { ptr, i32 }
          cleanup
  tail call void @_ZN4lean10object_refD2Ev(ptr noundef nonnull align 8 dereferenceable(16) %3) #19
  br label %.body.i

26:                                               ; preds = %12
  %27 = landingpad { ptr, i32 }
          cleanup
  br label %.body.i

.body.i:                                          ; preds = %26, %24
  %eh.lpad-body.i = phi { ptr, i32 } [ %27, %26 ], [ %25, %24 ]
  tail call void @_ZdlPvm(ptr noundef nonnull %3, i64 noundef 16) #23
  resume { ptr, i32 } %eh.lpad-body.i

"_ZNSt14_Function_base13_Base_managerIZN4lean11instantiateERKNS1_5levelERKNS1_8list_refINS1_4nameEEERKNS5_IS2_EEE3$_0E9_M_createIRKSD_EEvRSt9_Any_dataOT_St17integral_constantIbLb0EE.exit": ; preds = %_ZN4lean8list_refINS_4nameEEC2ERKS2_.exit.i.i, %20, %22, %23
  store ptr %3, ptr %0, align 8, !tbaa !41
  ret void
}